target datalayout = "e-m:e-p270:32:32-p271:32:32-p272:64:64-i64:64-i128:128-f80:128-n8:16:32:64-S128"
target triple = "x86_64-pc-linux-gnu"

%struct.PlanState = type { i32, ptr, ptr, ptr, ptr, ptr, ptr, ptr, ptr, ptr, ptr, ptr, ptr, ptr, ptr, ptr, ptr, ptr, i8, ptr, ptr, ptr, ptr, ptr, i8, i8, i8, i8, i8, i8, i8, i8 }
%struct.BitmapHeapScanState = type { %struct.ScanState, ptr, ptr, i32, %struct.BitmapHeapScanInstrumentation, %struct.TBMIterator, i32, i32, i32, i8, ptr, ptr, i8, i32, i32 }
%struct.ScanState = type { %struct.PlanState, ptr, ptr, ptr }
%struct.BitmapHeapScanInstrumentation = type { i64, i64 }
%struct.TBMIterator = type { i8, %union.anon }
%union.anon = type { ptr }
%struct.SharedBitmapHeapInstrumentation = type { i32, [0 x %struct.BitmapHeapScanInstrumentation] }

; Function Attrs: nounwind uwtable
define dso_local void @ExecBitmapHeapRetrieveInstrumentation(ptr noundef %0) #0 {
  %2 = alloca ptr, align 8
  %3 = alloca ptr, align 8
  %4 = alloca i64, align 8
  %5 = alloca i32, align 4
  store ptr %0, ptr %2, align 8
  call void @llvm.lifetime.start.p0(i64 8, ptr %3) #8
  %6 = load ptr, ptr %2, align 8
  %7 = getelementptr inbounds nuw %struct.BitmapHeapScanState, ptr %6, i32 0, i32 11
  %8 = load ptr, ptr %7, align 8
  store ptr %8, ptr %3, align 8
  call void @llvm.lifetime.start.p0(i64 8, ptr %4) #8
  %9 = load ptr, ptr %3, align 8
  %10 = icmp eq ptr %9, null
  br i1 %10, label %11, label %12

11:                                               ; preds = %1
  store i32 1, ptr %5, align 4
  br label %28

12:                                               ; preds = %1
  %13 = load ptr, ptr %3, align 8
  %14 = getelementptr inbounds nuw %struct.SharedBitmapHeapInstrumentation, ptr %13, i32 0, i32 0
  %15 = load i32, ptr %14, align 8
  %16 = sext i32 %15 to i64
  %17 = mul i64 %16, 16
  %18 = add i64 8, %17
  store i64 %18, ptr %4, align 8
  %19 = load i64, ptr %4, align 8
  %20 = call ptr @palloc(i64 noundef %19)
  %21 = load ptr, ptr %2, align 8
  %22 = getelementptr inbounds nuw %struct.BitmapHeapScanState, ptr %21, i32 0, i32 11
  store ptr %20, ptr %22, align 8
  %23 = load ptr, ptr %2, align 8
  %24 = getelementptr inbounds nuw %struct.BitmapHeapScanState, ptr %23, i32 0, i32 11
  %25 = load ptr, ptr %24, align 8
  %26 = load ptr, ptr %3, align 8
  %27 = load i64, ptr %4, align 8
  call void @llvm.memcpy.p0.p0.i64(ptr align 8 %25, ptr align 8 %26, i64 %27, i1 false)
  store i32 0, ptr %5, align 4
  br label %28

28:                                               ; preds = %12, %11
  call void @llvm.lifetime.end.p0(i64 8, ptr %4) #8
  call void @llvm.lifetime.end.p0(i64 8, ptr %3) #8
  %29 = load i32, ptr %5, align 4
  switch i32 %29, label %31 [
    i32 0, label %30
    i32 1, label %30
  ]

30:                                               ; preds = %28, %28
  ret void

31:                                               ; preds = %28
  unreachable
}